target datalayout = "e-m:e-p270:32:32-p271:32:32-p272:64:64-i64:64-i128:128-f80:128-n8:16:32:64-S128"
target triple = "x86_64-pc-linux-gnu"

%struct.XML_Memory_Handling_Suite = type { ptr, ptr, ptr }
%struct.XML_ParserStruct = type { ptr, ptr, ptr, %struct.XML_Memory_Handling_Suite, ptr, ptr, ptr, i64, ptr, i64, i8, i32, ptr, ptr, ptr, ptr, ptr, ptr, ptr, ptr, ptr, ptr, ptr, ptr, ptr, ptr, ptr, ptr, ptr, ptr, ptr, ptr, ptr, ptr, ptr, ptr, ptr, ptr, %struct.INIT_ENCODING, ptr, ptr, i8, i8, ptr, ptr, ptr, ptr, %struct.prolog_state, ptr, i32, ptr, ptr, ptr, ptr, ptr, i8, i32, ptr, ptr, ptr, ptr, ptr, ptr, ptr, ptr, ptr, i8, i8, ptr, ptr, ptr, ptr, ptr, ptr, i32, i32, i32, ptr, ptr, i64, i8, %struct.position, %struct.STRING_POOL, %struct.STRING_POOL, ptr, i32, i8, ptr, %struct.XML_ParsingStatus, i8, i8, i32, i64, %struct.accounting, %struct.entity_stats }
%struct.INIT_ENCODING = type { %struct.encoding, ptr }
%struct.encoding = type { [4 x ptr], [2 x ptr], ptr, ptr, ptr, ptr, ptr, ptr, ptr, ptr, ptr, ptr, i32, i8, i8 }
%struct.prolog_state = type { ptr, i32, i32, i32, i32, i32 }
%struct.position = type { i64, i64 }
%struct.STRING_POOL = type { ptr, ptr, ptr, ptr, ptr, ptr }
%struct.XML_ParsingStatus = type { i32, i8 }
%struct.accounting = type { i64, i64, i64, float, i64 }
%struct.entity_stats = type { i32, i32, i32, i64 }
%struct.DTD = type { %struct.HASH_TABLE, %struct.HASH_TABLE, %struct.HASH_TABLE, %struct.HASH_TABLE, %struct.STRING_POOL, %struct.STRING_POOL, i8, i8, i8, i8, %struct.HASH_TABLE, %struct.prefix, i8, ptr, i32, i32, i32, i32, ptr }
%struct.HASH_TABLE = type { ptr, i8, i64, i64, ptr }
%struct.prefix = type { ptr, ptr }

; Function Attrs: nounwind uwtable
define internal ptr @poolCopyString(ptr noundef %0, ptr noundef %1) #0 {
  %3 = alloca ptr, align 8
  %4 = alloca ptr, align 8
  %5 = alloca ptr, align 8
  store ptr %0, ptr %4, align 8, !tbaa !8
  store ptr %1, ptr %5, align 8, !tbaa !3
  br label %6

6:                                                ; preds = %28, %2
  %7 = load ptr, ptr %4, align 8, !tbaa !8
  %8 = getelementptr inbounds nuw %struct.STRING_POOL, ptr %7, i32 0, i32 3
  %9 = load ptr, ptr %8, align 8, !tbaa !90
  %10 = load ptr, ptr %4, align 8, !tbaa !8
  %11 = getelementptr inbounds nuw %struct.STRING_POOL, ptr %10, i32 0, i32 2
  %12 = load ptr, ptr %11, align 8, !tbaa !91
  %13 = icmp eq ptr %9, %12
  br i1 %13, label %14, label %19

14:                                               ; preds = %6
  %15 = load ptr, ptr %4, align 8, !tbaa !8
  %16 = call zeroext i8 @poolGrow(ptr noundef %15)
  %17 = icmp ne i8 %16, 0
  br i1 %17, label %19, label %18

18:                                               ; preds = %14
  br i1 false, label %27, label %26

19:                                               ; preds = %14, %6
  %20 = load ptr, ptr %5, align 8, !tbaa !3
  %21 = load i8, ptr %20, align 1, !tbaa !9
  %22 = load ptr, ptr %4, align 8, !tbaa !8
  %23 = getelementptr inbounds nuw %struct.STRING_POOL, ptr %22, i32 0, i32 3
  %24 = load ptr, ptr %23, align 8, !tbaa !90
  %25 = getelementptr i8, ptr %24, i32 1
  store ptr %25, ptr %23, align 8, !tbaa !90
  store i8 %21, ptr %24, align 1, !tbaa !9
  br i1 true, label %27, label %26

26:                                               ; preds = %19, %18
  store ptr null, ptr %3, align 8
  br label %43

27:                                               ; preds = %19, %18
  br label %28

28:                                               ; preds = %27
  %29 = load ptr, ptr %5, align 8, !tbaa !3
  %30 = getelementptr i8, ptr %29, i32 1
  store ptr %30, ptr %5, align 8, !tbaa !3
  %31 = load i8, ptr %29, align 1, !tbaa !9
  %32 = icmp ne i8 %31, 0
  br i1 %32, label %6, label %33, !llvm.loop !209

33:                                               ; preds = %28
  %34 = load ptr, ptr %4, align 8, !tbaa !8
  %35 = getelementptr inbounds nuw %struct.STRING_POOL, ptr %34, i32 0, i32 4
  %36 = load ptr, ptr %35, align 8, !tbaa !89
  store ptr %36, ptr %5, align 8, !tbaa !3
  %37 = load ptr, ptr %4, align 8, !tbaa !8
  %38 = getelementptr inbounds nuw %struct.STRING_POOL, ptr %37, i32 0, i32 3
  %39 = load ptr, ptr %38, align 8, !tbaa !90
  %40 = load ptr, ptr %4, align 8, !tbaa !8
  %41 = getelementptr inbounds nuw %struct.STRING_POOL, ptr %40, i32 0, i32 4
  store ptr %39, ptr %41, align 8, !tbaa !89
  %42 = load ptr, ptr %5, align 8, !tbaa !3
  store ptr %42, ptr %3, align 8
  br label %43

43:                                               ; preds = %33, %26
  %44 = load ptr, ptr %3, align 8
  ret ptr %44
}

; Function Attrs: nounwind uwtable
define hidden i32 @PyExpat_XML_SetBase(ptr noundef %0, ptr noundef %1) #0 {
  %3 = alloca i32, align 4
  %4 = alloca ptr, align 8
  %5 = alloca ptr, align 8
  store ptr %0, ptr %4, align 8, !tbaa !12
  store ptr %1, ptr %5, align 8, !tbaa !3
  %6 = load ptr, ptr %4, align 8, !tbaa !12
  %7 = icmp eq ptr %6, null
  br i1 %7, label %8, label %9

8:                                                ; preds = %2
  store i32 0, ptr %3, align 4
  br label %30

9:                                                ; preds = %2
  %10 = load ptr, ptr %5, align 8, !tbaa !3
  %11 = icmp ne ptr %10, null
  br i1 %11, label %12, label %26

12:                                               ; preds = %9
  %13 = load ptr, ptr %4, align 8, !tbaa !12
  %14 = getelementptr inbounds nuw %struct.XML_ParserStruct, ptr %13, i32 0, i32 68
  %15 = load ptr, ptr %14, align 8, !tbaa !44
  %16 = getelementptr inbounds nuw %struct.DTD, ptr %15, i32 0, i32 4
  %17 = load ptr, ptr %5, align 8, !tbaa !3
  %18 = call ptr @poolCopyString(ptr noundef %16, ptr noundef %17)
  store ptr %18, ptr %5, align 8, !tbaa !3
  %19 = load ptr, ptr %5, align 8, !tbaa !3
  %20 = icmp ne ptr %19, null
  br i1 %20, label %22, label %21

21:                                               ; preds = %12
  store i32 0, ptr %3, align 4
  br label %30

22:                                               ; preds = %12
  %23 = load ptr, ptr %5, align 8, !tbaa !3
  %24 = load ptr, ptr %4, align 8, !tbaa !12
  %25 = getelementptr inbounds nuw %struct.XML_ParserStruct, ptr %24, i32 0, i32 69
  store ptr %23, ptr %25, align 8, !tbaa !93
  br label %29

26:                                               ; preds = %9
  %27 = load ptr, ptr %4, align 8, !tbaa !12
  %28 = getelementptr inbounds nuw %struct.XML_ParserStruct, ptr %27, i32 0, i32 69
  store ptr null, ptr %28, align 8, !tbaa !93
  br label %29

29:                                               ; preds = %26, %22
  store i32 1, ptr %3, align 4
  br label %30

30:                                               ; preds = %29, %21, %8
  %31 = load i32, ptr %3, align 4
  ret i32 %31
}