; Function Attrs: nounwind uwtable
define hidden range(i32 0, 2) i32 @PyExpat_XML_SetBase(ptr noundef %0, ptr noundef readonly %1) local_unnamed_addr #0 {
  %3 = icmp eq ptr %0, null
  br i1 %3, label %poolCopyString.exit.thread, label %4

4:                                                ; preds = %2
  %.not = icmp eq ptr %1, null
  br i1 %.not, label %poolCopyString.exit.thread.sink.split, label %5

5:                                                ; preds = %4
  %6 = getelementptr inbounds nuw i8, ptr %0, i64 688
  %7 = load ptr, ptr %6, align 8, !tbaa !53
  %8 = getelementptr inbounds nuw i8, ptr %7, i64 160
  %9 = getelementptr inbounds nuw i8, ptr %7, i64 184
  %10 = getelementptr inbounds nuw i8, ptr %7, i64 176
  br label %11

11:                                               ; preds = %17, %5
  %.0.i = phi ptr [ %1, %5 ], [ %21, %17 ]
  %12 = load ptr, ptr %9, align 8, !tbaa !147
  %13 = load ptr, ptr %10, align 8, !tbaa !148
  %14 = icmp eq ptr %12, %13
  br i1 %14, label %15, label %17

15:                                               ; preds = %11
  %16 = tail call fastcc zeroext i8 @poolGrow(ptr noundef nonnull %8)
  %.not.i = icmp eq i8 %16, 0
  br i1 %.not.i, label %poolCopyString.exit.thread, label %._crit_edge.i

._crit_edge.i:                                    ; preds = %15
  %.pre.i = load ptr, ptr %9, align 8, !tbaa !147
  br label %17

17:                                               ; preds = %._crit_edge.i, %11
  %18 = phi ptr [ %.pre.i, %._crit_edge.i ], [ %12, %11 ]
  %19 = load i8, ptr %.0.i, align 1, !tbaa !3
  %20 = getelementptr i8, ptr %18, i64 1
  store ptr %20, ptr %9, align 8, !tbaa !147
  store i8 %19, ptr %18, align 1, !tbaa !3
  %21 = getelementptr i8, ptr %.0.i, i64 1
  %22 = load i8, ptr %.0.i, align 1, !tbaa !3
  %.not12.i = icmp eq i8 %22, 0
  br i1 %.not12.i, label %poolCopyString.exit, label %11, !llvm.loop !151

poolCopyString.exit:                              ; preds = %17
  %23 = getelementptr inbounds nuw i8, ptr %7, i64 192
  %24 = load ptr, ptr %23, align 8, !tbaa !149
  %25 = load ptr, ptr %9, align 8, !tbaa !147
  store ptr %25, ptr %23, align 8, !tbaa !149
  %.not11 = icmp eq ptr %24, null
  br i1 %.not11, label %poolCopyString.exit.thread, label %poolCopyString.exit.thread.sink.split

poolCopyString.exit.thread.sink.split:            ; preds = %4, %poolCopyString.exit
  %.sink = phi ptr [ %24, %poolCopyString.exit ], [ null, %4 ]
  %26 = getelementptr inbounds nuw i8, ptr %0, i64 696
  store ptr %.sink, ptr %26, align 8, !tbaa !102
  br label %poolCopyString.exit.thread

poolCopyString.exit.thread:                       ; preds = %15, %poolCopyString.exit.thread.sink.split, %poolCopyString.exit, %2
  %.0 = phi i32 [ 0, %2 ], [ 0, %poolCopyString.exit ], [ 1, %poolCopyString.exit.thread.sink.split ], [ 0, %15 ]
  ret i32 %.0
}